; Function Attrs: nounwind sspstrong uwtable
define internal fastcc void @lsi_script_scsi_interrupt(ptr noundef %s, i32 noundef range(i32 0, 129) %stat0, i32 noundef range(i32 0, 5) %stat1) unnamed_addr #0 {
entry:
  %_now.i.i = alloca %struct.timeval, align 8
  %conv = trunc nuw nsw i32 %stat1 to i8
  %conv1 = trunc nuw i32 %stat0 to i8
  %sist1 = getelementptr inbounds nuw i8, ptr %s, i64 3766
  %0 = load i8, ptr %sist1, align 2
  %sist0 = getelementptr inbounds nuw i8, ptr %s, i64 3765
  %1 = load i8, ptr %sist0, align 1
  call void @llvm.lifetime.start.p0(i64 16, ptr nonnull %_now.i.i)
  %2 = load i32, ptr @trace_events_enabled_count, align 4
  %tobool.i.i = icmp ne i32 %2, 0
  %3 = load i16, ptr @_TRACE_LSI_SCRIPT_SCSI_INTERRUPT_DSTATE, align 2
  %tobool4.i.i = icmp ne i16 %3, 0
  %or.cond.i.i = select i1 %tobool.i.i, i1 %tobool4.i.i, i1 false
  br i1 %or.cond.i.i, label %land.lhs.true5.i.i, label %trace_lsi_script_scsi_interrupt.exit

land.lhs.true5.i.i:                               ; preds = %entry
  %4 = load i32, ptr @qemu_loglevel, align 4
  %and.i.i.i = and i32 %4, 32768
  %cmp.i.not.i.i = icmp eq i32 %and.i.i.i, 0
  br i1 %cmp.i.not.i.i, label %trace_lsi_script_scsi_interrupt.exit, label %if.then.i.i

if.then.i.i:                                      ; preds = %land.lhs.true5.i.i
  %5 = load i8, ptr @message_with_timestamp, align 1
  %tobool7.i.i = trunc i8 %5 to i1
  br i1 %tobool7.i.i, label %if.then8.i.i, label %if.else.i.i

if.then8.i.i:                                     ; preds = %if.then.i.i
  %call9.i.i = call i32 @gettimeofday(ptr noundef nonnull %_now.i.i, ptr noundef null) #12
  %call10.i.i = tail call i32 @qemu_get_thread_id() #12
  %6 = load i64, ptr %_now.i.i, align 8
  %tv_usec.i.i = getelementptr inbounds nuw i8, ptr %_now.i.i, i64 8
  %7 = load i64, ptr %tv_usec.i.i, align 8
  %conv13.i.i = zext i8 %0 to i32
  %conv14.i.i = zext i8 %1 to i32
  tail call void (ptr, ...) @qemu_log(ptr noundef nonnull @.str.25, i32 noundef %call10.i.i, i64 noundef %6, i64 noundef %7, i32 noundef %stat1, i32 noundef %stat0, i32 noundef %conv13.i.i, i32 noundef %conv14.i.i) #12
  br label %trace_lsi_script_scsi_interrupt.exit

if.else.i.i:                                      ; preds = %if.then.i.i
  %conv17.i.i = zext i8 %0 to i32
  %conv18.i.i = zext i8 %1 to i32
  tail call void (ptr, ...) @qemu_log(ptr noundef nonnull @.str.26, i32 noundef %stat1, i32 noundef %stat0, i32 noundef %conv17.i.i, i32 noundef %conv18.i.i) #12
  br label %trace_lsi_script_scsi_interrupt.exit

trace_lsi_script_scsi_interrupt.exit:             ; preds = %entry, %land.lhs.true5.i.i, %if.then8.i.i, %if.else.i.i
  call void @llvm.lifetime.end.p0(i64 16, ptr nonnull %_now.i.i)
  %8 = load i8, ptr %sist0, align 1
  %conv4 = or i8 %8, %conv1
  store i8 %conv4, ptr %sist0, align 1
  %9 = load i8, ptr %sist1, align 2
  %conv8 = or i8 %9, %conv
  store i8 %conv8, ptr %sist1, align 2
  %sien0 = getelementptr inbounds nuw i8, ptr %s, i64 3767
  %10 = load i8, ptr %sien0, align 1
  %11 = or i8 %10, -113
  %and1513 = and i8 %11, %conv4
  %tobool.not = icmp eq i8 %and1513, 0
  br i1 %tobool.not, label %lor.lhs.false, label %if.then

lor.lhs.false:                                    ; preds = %trace_lsi_script_scsi_interrupt.exit
  %sien1 = getelementptr inbounds nuw i8, ptr %s, i64 3768
  %12 = load i8, ptr %sien1, align 8
  %13 = and i8 %12, 3
  %14 = or disjoint i8 %13, -8
  %and1814 = and i8 %14, %conv8
  %tobool19.not = icmp eq i8 %and1814, 0
  br i1 %tobool19.not, label %if.end, label %if.then

if.then:                                          ; preds = %lor.lhs.false, %trace_lsi_script_scsi_interrupt.exit
  %istat1.i = getelementptr inbounds nuw i8, ptr %s, i64 3761
  %15 = load i8, ptr %istat1.i, align 1
  %16 = and i8 %15, -3
  store i8 %16, ptr %istat1.i, align 1
  br label %if.end

if.end:                                           ; preds = %if.then, %lor.lhs.false
  tail call fastcc void @lsi_update_irq(ptr noundef nonnull %s)
  ret void
}